; ModuleID = 'source-C-CXX/56/423.c'
source_filename = "source-C-CXX/56/423.c"
target datalayout = "e-m:e-p270:32:32-p271:32:32-p272:64:64-i64:64-f80:128-n8:16:32:64-S128"
target triple = "x86_64-pc-linux-gnu"

@.str = private unnamed_addr constant [3 x i8] c"%d\00", align 1
@.str.2 = private unnamed_addr constant [4 x i8] c"%c\0A\00", align 1

; Function Attrs: nounwind sspstrong uwtable
define dso_local i32 @main() local_unnamed_addr #0 {
  %1 = alloca [100 x i8], align 16
  %2 = alloca i32, align 4
  %3 = getelementptr inbounds [100 x i8], [100 x i8]* %1, i64 0, i64 0
  call void @llvm.lifetime.start.p0i8(i64 100, i8* nonnull %3) #6
  %4 = bitcast i32* %2 to i8*
  call void @llvm.lifetime.start.p0i8(i64 4, i8* nonnull %4) #6
  %5 = call i32 (i8*, ...) @__isoc99_scanf(i8* getelementptr inbounds ([3 x i8], [3 x i8]* @.str, i64 0, i64 0), i32* nonnull %2)
  %6 = load i32, i32* %2, align 4, !tbaa !5
  %7 = icmp slt i32 %6, 0
  br i1 %7, label %8, label %10

8:                                                ; preds = %67, %0
  %9 = call i32 (i8*, ...) @__isoc99_scanf(i8* getelementptr inbounds ([3 x i8], [3 x i8]* @.str, i64 0, i64 0), i32* nonnull %2)
  call void @llvm.lifetime.end.p0i8(i64 4, i8* nonnull %4) #6
  call void @llvm.lifetime.end.p0i8(i64 100, i8* nonnull %3) #6
  ret i32 0

10:                                               ; preds = %0, %67
  %11 = phi i32 [ %68, %67 ], [ 0, %0 ]
  %12 = call i32 (i8*, ...) bitcast (i32 (...)* @gets to i32 (i8*, ...)*)(i8* nonnull %3) #6
  %13 = call i64 @strlen(i8* noundef nonnull %3) #7
  %14 = trunc i64 %13 to i32
  %15 = shl i64 %13, 32
  %16 = add i64 %15, -4294967296
  %17 = ashr exact i64 %16, 32
  %18 = getelementptr inbounds [100 x i8], [100 x i8]* %1, i64 0, i64 %17
  %19 = load i8, i8* %18, align 1, !tbaa !9
  %20 = sext i8 %19 to i32
  switch i32 %20, label %67 [
    i32 103, label %31
    i32 114, label %26
    i32 121, label %21
  ]

21:                                               ; preds = %10
  %22 = add i32 %14, -3
  %23 = icmp sgt i32 %14, 3
  br i1 %23, label %24, label %60

24:                                               ; preds = %21
  %25 = zext i32 %22 to i64
  br label %52

26:                                               ; preds = %10
  %27 = add i32 %14, -3
  %28 = icmp sgt i32 %14, 3
  br i1 %28, label %29, label %60

29:                                               ; preds = %26
  %30 = zext i32 %27 to i64
  br label %44

31:                                               ; preds = %10
  %32 = add i32 %14, -4
  %33 = icmp sgt i32 %14, 4
  br i1 %33, label %34, label %60

34:                                               ; preds = %31
  %35 = zext i32 %32 to i64
  br label %36

36:                                               ; preds = %34, %36
  %37 = phi i64 [ 0, %34 ], [ %42, %36 ]
  %38 = getelementptr inbounds [100 x i8], [100 x i8]* %1, i64 0, i64 %37
  %39 = load i8, i8* %38, align 1, !tbaa !9
  %40 = sext i8 %39 to i32
  %41 = call i32 @putchar(i32 %40)
  %42 = add nuw nsw i64 %37, 1
  %43 = icmp eq i64 %42, %35
  br i1 %43, label %60, label %36, !llvm.loop !10

44:                                               ; preds = %29, %44
  %45 = phi i64 [ 0, %29 ], [ %50, %44 ]
  %46 = getelementptr inbounds [100 x i8], [100 x i8]* %1, i64 0, i64 %45
  %47 = load i8, i8* %46, align 1, !tbaa !9
  %48 = sext i8 %47 to i32
  %49 = call i32 @putchar(i32 %48)
  %50 = add nuw nsw i64 %45, 1
  %51 = icmp eq i64 %50, %30
  br i1 %51, label %60, label %44, !llvm.loop !12

52:                                               ; preds = %24, %52
  %53 = phi i64 [ 0, %24 ], [ %58, %52 ]
  %54 = getelementptr inbounds [100 x i8], [100 x i8]* %1, i64 0, i64 %53
  %55 = load i8, i8* %54, align 1, !tbaa !9
  %56 = sext i8 %55 to i32
  %57 = call i32 @putchar(i32 %56)
  %58 = add nuw nsw i64 %53, 1
  %59 = icmp eq i64 %58, %25
  br i1 %59, label %60, label %52, !llvm.loop !13

60:                                               ; preds = %52, %44, %36, %21, %26, %31
  %61 = phi i32 [ %32, %31 ], [ %27, %26 ], [ %22, %21 ], [ %32, %36 ], [ %27, %44 ], [ %22, %52 ]
  %62 = sext i32 %61 to i64
  %63 = getelementptr inbounds [100 x i8], [100 x i8]* %1, i64 0, i64 %62
  %64 = load i8, i8* %63, align 1, !tbaa !9
  %65 = sext i8 %64 to i32
  %66 = call i32 (i8*, ...) @printf(i8* nonnull dereferenceable(1) getelementptr inbounds ([4 x i8], [4 x i8]* @.str.2, i64 0, i64 0), i32 %65)
  br label %67

67:                                               ; preds = %60, %10
  %68 = add nuw nsw i32 %11, 1
  %69 = load i32, i32* %2, align 4, !tbaa !5
  %70 = icmp slt i32 %11, %69
  br i1 %70, label %10, label %8, !llvm.loop !14
}

; Function Attrs: argmemonly mustprogress nofree nosync nounwind willreturn
declare void @llvm.lifetime.start.p0i8(i64 immarg, i8* nocapture) #1

; Function Attrs: nofree nounwind
declare noundef i32 @__isoc99_scanf(i8* nocapture noundef readonly, ...) local_unnamed_addr #2

declare i32 @gets(...) local_unnamed_addr #3

; Function Attrs: argmemonly mustprogress nofree nounwind readonly willreturn
declare i64 @strlen(i8* nocapture) local_unnamed_addr #4

; Function Attrs: nofree nounwind
declare noundef i32 @printf(i8* nocapture noundef readonly, ...) local_unnamed_addr #2

; Function Attrs: argmemonly mustprogress nofree nosync nounwind willreturn
declare void @llvm.lifetime.end.p0i8(i64 immarg, i8* nocapture) #1

; Function Attrs: nofree nounwind
declare noundef i32 @putchar(i32 noundef) local_unnamed_addr #5


!llvm.module.flags = !{!0, !1, !2, !3}
!llvm.ident = !{!4}

!0 = !{i32 1, !"wchar_size", i32 4}
!1 = !{i32 7, !"PIC Level", i32 2}
!2 = !{i32 7, !"PIE Level", i32 2}
!3 = !{i32 7, !"uwtable", i32 1}
!4 = !{!"clang version 13.0.0"}
!5 = !{!6, !6, i64 0}
!6 = !{!"int", !7, i64 0}
!7 = !{!"omnipotent char", !8, i64 0}
!8 = !{!"Simple C/C++ TBAA"}
!9 = !{!7, !7, i64 0}
!10 = distinct !{!10, !11}
!11 = !{!"llvm.loop.mustprogress"}
!12 = distinct !{!12, !11}
!13 = distinct !{!13, !11}
!14 = distinct !{!14, !11}
